target datalayout = "e-m:e-p270:32:32-p271:32:32-p272:64:64-i64:64-i128:128-f80:128-n8:16:32:64-S128"
target triple = "x86_64-pc-linux-gnu"

%struct.FT_LibraryRec_ = type { ptr, i32, i32, i32, i32, [32 x ptr], %struct.FT_ListRec_, ptr, ptr, [4 x ptr], [3 x %struct.FT_Vector_], i32 }
%struct.FT_ListRec_ = type { ptr, ptr }
%struct.FT_Vector_ = type { i64, i64 }
%struct.FT_StrokerRec_ = type { i64, i64, %struct.FT_Vector_, i64, i8, i8, i64, %struct.FT_Vector_, i64, i8, i32, i32, i32, i64, i64, [2 x %struct.FT_StrokeBorderRec_], ptr }
%struct.FT_StrokeBorderRec_ = type { i32, i32, ptr, ptr, i8, i32, ptr, i8 }

; Function Attrs: nounwind uwtable
define internal void @ft_stroke_border_done(ptr noundef %0) #0 {
  %2 = alloca ptr, align 8
  %3 = alloca ptr, align 8
  store ptr %0, ptr %2, align 8
  %4 = load ptr, ptr %2, align 8
  %5 = getelementptr inbounds %struct.FT_StrokeBorderRec_, ptr %4, i32 0, i32 6
  %6 = load ptr, ptr %5, align 8
  store ptr %6, ptr %3, align 8
  br label %7

7:                                                ; preds = %1
  %8 = load ptr, ptr %3, align 8
  %9 = load ptr, ptr %2, align 8
  %10 = getelementptr inbounds %struct.FT_StrokeBorderRec_, ptr %9, i32 0, i32 2
  %11 = load ptr, ptr %10, align 8
  call void @ft_mem_free(ptr noundef %8, ptr noundef %11)
  %12 = load ptr, ptr %2, align 8
  %13 = getelementptr inbounds %struct.FT_StrokeBorderRec_, ptr %12, i32 0, i32 2
  store ptr null, ptr %13, align 8
  br label %14

14:                                               ; preds = %7
  br label %15

15:                                               ; preds = %14
  %16 = load ptr, ptr %3, align 8
  %17 = load ptr, ptr %2, align 8
  %18 = getelementptr inbounds %struct.FT_StrokeBorderRec_, ptr %17, i32 0, i32 3
  %19 = load ptr, ptr %18, align 8
  call void @ft_mem_free(ptr noundef %16, ptr noundef %19)
  %20 = load ptr, ptr %2, align 8
  %21 = getelementptr inbounds %struct.FT_StrokeBorderRec_, ptr %20, i32 0, i32 3
  store ptr null, ptr %21, align 8
  br label %22

22:                                               ; preds = %15
  %23 = load ptr, ptr %2, align 8
  %24 = getelementptr inbounds %struct.FT_StrokeBorderRec_, ptr %23, i32 0, i32 0
  store i32 0, ptr %24, align 8
  %25 = load ptr, ptr %2, align 8
  %26 = getelementptr inbounds %struct.FT_StrokeBorderRec_, ptr %25, i32 0, i32 1
  store i32 0, ptr %26, align 4
  %27 = load ptr, ptr %2, align 8
  %28 = getelementptr inbounds %struct.FT_StrokeBorderRec_, ptr %27, i32 0, i32 5
  store i32 -1, ptr %28, align 4
  %29 = load ptr, ptr %2, align 8
  %30 = getelementptr inbounds %struct.FT_StrokeBorderRec_, ptr %29, i32 0, i32 7
  store i8 0, ptr %30, align 8
  ret void
}

; Function Attrs: nounwind uwtable
define void @FT_Stroker_Done(ptr noundef %0) #0 {
  %2 = alloca ptr, align 8
  %3 = alloca ptr, align 8
  store ptr %0, ptr %2, align 8
  %4 = load ptr, ptr %2, align 8
  %5 = icmp ne ptr %4, null
  br i1 %5, label %6, label %24

6:                                                ; preds = %1
  %7 = load ptr, ptr %2, align 8
  %8 = getelementptr inbounds %struct.FT_StrokerRec_, ptr %7, i32 0, i32 16
  %9 = load ptr, ptr %8, align 8
  %10 = getelementptr inbounds %struct.FT_LibraryRec_, ptr %9, i32 0, i32 0
  %11 = load ptr, ptr %10, align 8
  store ptr %11, ptr %3, align 8
  %12 = load ptr, ptr %2, align 8
  %13 = getelementptr inbounds %struct.FT_StrokerRec_, ptr %12, i32 0, i32 15
  %14 = getelementptr inbounds [2 x %struct.FT_StrokeBorderRec_], ptr %13, i64 0, i64 0
  call void @ft_stroke_border_done(ptr noundef %14)
  %15 = load ptr, ptr %2, align 8
  %16 = getelementptr inbounds %struct.FT_StrokerRec_, ptr %15, i32 0, i32 15
  %17 = getelementptr inbounds [2 x %struct.FT_StrokeBorderRec_], ptr %16, i64 0, i64 1
  call void @ft_stroke_border_done(ptr noundef %17)
  %18 = load ptr, ptr %2, align 8
  %19 = getelementptr inbounds %struct.FT_StrokerRec_, ptr %18, i32 0, i32 16
  store ptr null, ptr %19, align 8
  br label %20

20:                                               ; preds = %6
  %21 = load ptr, ptr %3, align 8
  %22 = load ptr, ptr %2, align 8
  call void @ft_mem_free(ptr noundef %21, ptr noundef %22)
  store ptr null, ptr %2, align 8
  br label %23

23:                                               ; preds = %20
  br label %24

24:                                               ; preds = %23, %1
  ret void
}