; Function Attrs: nounwind uwtable
define void @FT_Stroker_Done(ptr noundef %0) local_unnamed_addr #0 {
  %.not = icmp eq ptr %0, null
  br i1 %.not, label %26, label %2

2:                                                ; preds = %1
  %3 = getelementptr inbounds nuw i8, ptr %0, i64 208
  %4 = load ptr, ptr %3, align 8
  %5 = load ptr, ptr %4, align 8
  %6 = getelementptr inbounds nuw i8, ptr %0, i64 112
  %7 = getelementptr inbounds nuw i8, ptr %0, i64 144
  %8 = load ptr, ptr %7, align 8
  %9 = getelementptr inbounds nuw i8, ptr %0, i64 120
  %10 = load ptr, ptr %9, align 8
  tail call void @ft_mem_free(ptr noundef %8, ptr noundef %10) #11
  store ptr null, ptr %9, align 8
  %11 = getelementptr inbounds nuw i8, ptr %0, i64 128
  %12 = load ptr, ptr %11, align 8
  tail call void @ft_mem_free(ptr noundef %8, ptr noundef %12) #11
  store ptr null, ptr %11, align 8
  store i32 0, ptr %6, align 8
  %13 = getelementptr inbounds nuw i8, ptr %0, i64 116
  store i32 0, ptr %13, align 4
  %14 = getelementptr inbounds nuw i8, ptr %0, i64 140
  store i32 -1, ptr %14, align 4
  %15 = getelementptr inbounds nuw i8, ptr %0, i64 152
  store i8 0, ptr %15, align 8
  %16 = getelementptr inbounds nuw i8, ptr %0, i64 160
  %17 = getelementptr inbounds nuw i8, ptr %0, i64 192
  %18 = load ptr, ptr %17, align 8
  %19 = getelementptr inbounds nuw i8, ptr %0, i64 168
  %20 = load ptr, ptr %19, align 8
  tail call void @ft_mem_free(ptr noundef %18, ptr noundef %20) #11
  store ptr null, ptr %19, align 8
  %21 = getelementptr inbounds nuw i8, ptr %0, i64 176
  %22 = load ptr, ptr %21, align 8
  tail call void @ft_mem_free(ptr noundef %18, ptr noundef %22) #11
  store ptr null, ptr %21, align 8
  store i32 0, ptr %16, align 8
  %23 = getelementptr inbounds nuw i8, ptr %0, i64 164
  store i32 0, ptr %23, align 4
  %24 = getelementptr inbounds nuw i8, ptr %0, i64 188
  store i32 -1, ptr %24, align 4
  %25 = getelementptr inbounds nuw i8, ptr %0, i64 200
  store i8 0, ptr %25, align 8
  store ptr null, ptr %3, align 8
  tail call void @ft_mem_free(ptr noundef %5, ptr noundef nonnull %0) #11
  br label %26

26:                                               ; preds = %2, %1
  ret void
}